target datalayout = "e-m:e-p270:32:32-p271:32:32-p272:64:64-i64:64-i128:128-f80:128-n8:16:32:64-S128"
target triple = "x86_64-pc-linux-gnu"

%struct.srpsrvparm_st = type { ptr, ptr, ptr }
%struct.SRP_user_pwd_st = type { ptr, ptr, ptr, ptr, ptr, ptr }

@bio_err = external global ptr, align 8
@.str.16 = private unnamed_addr constant [21 x i8] c"SRP username = \22%s\22\0A\00", align 1
@.str.17 = private unnamed_addr constant [23 x i8] c"User %s doesn't exist\0A\00", align 1
@.str.18 = private unnamed_addr constant [47 x i8] c"SRP parameters set: username = \22%s\22 info=\22%s\22\0A\00", align 1

; Function Attrs: nounwind uwtable
define internal i32 @ssl_srp_server_param_cb(ptr noundef %0, ptr noundef %1, ptr noundef %2) #0 {
  %4 = alloca i32, align 4
  %5 = alloca ptr, align 8
  %6 = alloca ptr, align 8
  %7 = alloca ptr, align 8
  %8 = alloca ptr, align 8
  %9 = alloca i32, align 4
  %10 = alloca i32, align 4
  store ptr %0, ptr %5, align 8, !tbaa !21
  store ptr %1, ptr %6, align 8, !tbaa !40
  store ptr %2, ptr %7, align 8, !tbaa !23
  call void @llvm.lifetime.start.p0(i64 8, ptr %8) #3
  %11 = load ptr, ptr %7, align 8, !tbaa !23
  store ptr %11, ptr %8, align 8, !tbaa !32
  call void @llvm.lifetime.start.p0(i64 4, ptr %9) #3
  store i32 2, ptr %9, align 4, !tbaa !10
  %12 = load ptr, ptr %8, align 8, !tbaa !32
  %13 = getelementptr inbounds nuw %struct.srpsrvparm_st, ptr %12, i32 0, i32 0
  %14 = load ptr, ptr %13, align 8, !tbaa !39
  %15 = icmp eq ptr %14, null
  br i1 %15, label %16, label %31

16:                                               ; preds = %3
  %17 = load ptr, ptr %8, align 8, !tbaa !32
  %18 = getelementptr inbounds nuw %struct.srpsrvparm_st, ptr %17, i32 0, i32 2
  %19 = load ptr, ptr %18, align 8, !tbaa !38
  %20 = icmp eq ptr %19, null
  br i1 %20, label %21, label %31

21:                                               ; preds = %16
  %22 = load ptr, ptr %5, align 8, !tbaa !21
  %23 = call ptr @SSL_get_srp_username(ptr noundef %22)
  %24 = load ptr, ptr %8, align 8, !tbaa !32
  %25 = getelementptr inbounds nuw %struct.srpsrvparm_st, ptr %24, i32 0, i32 0
  store ptr %23, ptr %25, align 8, !tbaa !39
  %26 = load ptr, ptr @bio_err, align 8, !tbaa !15
  %27 = load ptr, ptr %8, align 8, !tbaa !32
  %28 = getelementptr inbounds nuw %struct.srpsrvparm_st, ptr %27, i32 0, i32 0
  %29 = load ptr, ptr %28, align 8, !tbaa !39
  %30 = call i32 (ptr, ptr, ...) @BIO_printf(ptr noundef %26, ptr noundef @.str.16, ptr noundef %29)
  store i32 -1, ptr %4, align 4
  store i32 1, ptr %10, align 4
  br label %93

31:                                               ; preds = %16, %3
  %32 = load ptr, ptr %8, align 8, !tbaa !32
  %33 = getelementptr inbounds nuw %struct.srpsrvparm_st, ptr %32, i32 0, i32 2
  %34 = load ptr, ptr %33, align 8, !tbaa !38
  %35 = icmp eq ptr %34, null
  br i1 %35, label %36, label %42

36:                                               ; preds = %31
  %37 = load ptr, ptr @bio_err, align 8, !tbaa !15
  %38 = load ptr, ptr %8, align 8, !tbaa !32
  %39 = getelementptr inbounds nuw %struct.srpsrvparm_st, ptr %38, i32 0, i32 0
  %40 = load ptr, ptr %39, align 8, !tbaa !39
  %41 = call i32 (ptr, ptr, ...) @BIO_printf(ptr noundef %37, ptr noundef @.str.17, ptr noundef %40)
  br label %84

42:                                               ; preds = %31
  %43 = load ptr, ptr %5, align 8, !tbaa !21
  %44 = load ptr, ptr %8, align 8, !tbaa !32
  %45 = getelementptr inbounds nuw %struct.srpsrvparm_st, ptr %44, i32 0, i32 2
  %46 = load ptr, ptr %45, align 8, !tbaa !38
  %47 = getelementptr inbounds nuw %struct.SRP_user_pwd_st, ptr %46, i32 0, i32 4
  %48 = load ptr, ptr %47, align 8, !tbaa !42
  %49 = load ptr, ptr %8, align 8, !tbaa !32
  %50 = getelementptr inbounds nuw %struct.srpsrvparm_st, ptr %49, i32 0, i32 2
  %51 = load ptr, ptr %50, align 8, !tbaa !38
  %52 = getelementptr inbounds nuw %struct.SRP_user_pwd_st, ptr %51, i32 0, i32 3
  %53 = load ptr, ptr %52, align 8, !tbaa !44
  %54 = load ptr, ptr %8, align 8, !tbaa !32
  %55 = getelementptr inbounds nuw %struct.srpsrvparm_st, ptr %54, i32 0, i32 2
  %56 = load ptr, ptr %55, align 8, !tbaa !38
  %57 = getelementptr inbounds nuw %struct.SRP_user_pwd_st, ptr %56, i32 0, i32 1
  %58 = load ptr, ptr %57, align 8, !tbaa !45
  %59 = load ptr, ptr %8, align 8, !tbaa !32
  %60 = getelementptr inbounds nuw %struct.srpsrvparm_st, ptr %59, i32 0, i32 2
  %61 = load ptr, ptr %60, align 8, !tbaa !38
  %62 = getelementptr inbounds nuw %struct.SRP_user_pwd_st, ptr %61, i32 0, i32 2
  %63 = load ptr, ptr %62, align 8, !tbaa !46
  %64 = load ptr, ptr %8, align 8, !tbaa !32
  %65 = getelementptr inbounds nuw %struct.srpsrvparm_st, ptr %64, i32 0, i32 2
  %66 = load ptr, ptr %65, align 8, !tbaa !38
  %67 = getelementptr inbounds nuw %struct.SRP_user_pwd_st, ptr %66, i32 0, i32 5
  %68 = load ptr, ptr %67, align 8, !tbaa !47
  %69 = call i32 @SSL_set_srp_server_param(ptr noundef %43, ptr noundef %48, ptr noundef %53, ptr noundef %58, ptr noundef %63, ptr noundef %68)
  %70 = icmp slt i32 %69, 0
  br i1 %70, label %71, label %73

71:                                               ; preds = %42
  %72 = load ptr, ptr %6, align 8, !tbaa !40
  store i32 80, ptr %72, align 4, !tbaa !10
  br label %84

73:                                               ; preds = %42
  %74 = load ptr, ptr @bio_err, align 8, !tbaa !15
  %75 = load ptr, ptr %8, align 8, !tbaa !32
  %76 = getelementptr inbounds nuw %struct.srpsrvparm_st, ptr %75, i32 0, i32 0
  %77 = load ptr, ptr %76, align 8, !tbaa !39
  %78 = load ptr, ptr %8, align 8, !tbaa !32
  %79 = getelementptr inbounds nuw %struct.srpsrvparm_st, ptr %78, i32 0, i32 2
  %80 = load ptr, ptr %79, align 8, !tbaa !38
  %81 = getelementptr inbounds nuw %struct.SRP_user_pwd_st, ptr %80, i32 0, i32 5
  %82 = load ptr, ptr %81, align 8, !tbaa !47
  %83 = call i32 (ptr, ptr, ...) @BIO_printf(ptr noundef %74, ptr noundef @.str.18, ptr noundef %77, ptr noundef %82)
  store i32 0, ptr %9, align 4, !tbaa !10
  br label %84

84:                                               ; preds = %73, %71, %36
  %85 = load ptr, ptr %8, align 8, !tbaa !32
  %86 = getelementptr inbounds nuw %struct.srpsrvparm_st, ptr %85, i32 0, i32 2
  %87 = load ptr, ptr %86, align 8, !tbaa !38
  call void @SRP_user_pwd_free(ptr noundef %87)
  %88 = load ptr, ptr %8, align 8, !tbaa !32
  %89 = getelementptr inbounds nuw %struct.srpsrvparm_st, ptr %88, i32 0, i32 2
  store ptr null, ptr %89, align 8, !tbaa !38
  %90 = load ptr, ptr %8, align 8, !tbaa !32
  %91 = getelementptr inbounds nuw %struct.srpsrvparm_st, ptr %90, i32 0, i32 0
  store ptr null, ptr %91, align 8, !tbaa !39
  %92 = load i32, ptr %9, align 4, !tbaa !10
  store i32 %92, ptr %4, align 4
  store i32 1, ptr %10, align 4
  br label %93

93:                                               ; preds = %84, %21
  call void @llvm.lifetime.end.p0(i64 4, ptr %9) #3
  call void @llvm.lifetime.end.p0(i64 8, ptr %8) #3
  %94 = load i32, ptr %4, align 4
  ret i32 %94
}