; Function Attrs: nounwind uwtable
define internal range(i32 -1, 3) i32 @ssl_srp_server_param_cb(ptr noundef %0, ptr noundef writeonly captures(none) %1, ptr noundef captures(none) %2) #0 {
  %4 = load ptr, ptr %2, align 8, !tbaa !30
  %5 = icmp eq ptr %4, null
  %6 = getelementptr inbounds nuw i8, ptr %2, i64 16
  %7 = load ptr, ptr %6, align 8, !tbaa !29
  br i1 %5, label %8, label %15

8:                                                ; preds = %3
  %9 = icmp eq ptr %7, null
  br i1 %9, label %11, label %.thread

.thread:                                          ; preds = %8
  %10 = getelementptr inbounds nuw i8, ptr %2, i64 16
  br label %21

11:                                               ; preds = %8
  %12 = tail call ptr @SSL_get_srp_username(ptr noundef %0) #4
  store ptr %12, ptr %2, align 8, !tbaa !30
  %13 = load ptr, ptr @bio_err, align 8, !tbaa !12
  %14 = tail call i32 (ptr, ptr, ...) @BIO_printf(ptr noundef %13, ptr noundef nonnull @.str.16, ptr noundef %12) #4
  br label %46

15:                                               ; preds = %3
  %16 = getelementptr inbounds nuw i8, ptr %2, i64 16
  %17 = icmp eq ptr %7, null
  br i1 %17, label %18, label %21

18:                                               ; preds = %15
  %19 = load ptr, ptr @bio_err, align 8, !tbaa !12
  %20 = tail call i32 (ptr, ptr, ...) @BIO_printf(ptr noundef %19, ptr noundef nonnull @.str.17, ptr noundef nonnull %4) #4
  br label %43

21:                                               ; preds = %.thread, %15
  %22 = phi ptr [ %10, %.thread ], [ %16, %15 ]
  %23 = getelementptr inbounds nuw i8, ptr %7, i64 32
  %24 = load ptr, ptr %23, align 8, !tbaa !31
  %25 = getelementptr inbounds nuw i8, ptr %7, i64 24
  %26 = load ptr, ptr %25, align 8, !tbaa !34
  %27 = getelementptr inbounds nuw i8, ptr %7, i64 8
  %28 = load ptr, ptr %27, align 8, !tbaa !35
  %29 = getelementptr inbounds nuw i8, ptr %7, i64 16
  %30 = load ptr, ptr %29, align 8, !tbaa !36
  %31 = getelementptr inbounds nuw i8, ptr %7, i64 40
  %32 = load ptr, ptr %31, align 8, !tbaa !37
  %33 = tail call i32 @SSL_set_srp_server_param(ptr noundef %0, ptr noundef %24, ptr noundef %26, ptr noundef %28, ptr noundef %30, ptr noundef %32) #4
  %34 = icmp slt i32 %33, 0
  br i1 %34, label %35, label %36

35:                                               ; preds = %21
  store i32 80, ptr %1, align 4, !tbaa !38
  br label %43

36:                                               ; preds = %21
  %37 = load ptr, ptr @bio_err, align 8, !tbaa !12
  %38 = load ptr, ptr %2, align 8, !tbaa !30
  %39 = load ptr, ptr %22, align 8, !tbaa !29
  %40 = getelementptr inbounds nuw i8, ptr %39, i64 40
  %41 = load ptr, ptr %40, align 8, !tbaa !37
  %42 = tail call i32 (ptr, ptr, ...) @BIO_printf(ptr noundef %37, ptr noundef nonnull @.str.18, ptr noundef %38, ptr noundef %41) #4
  br label %43

43:                                               ; preds = %36, %35, %18
  %44 = phi ptr [ %16, %18 ], [ %22, %35 ], [ %22, %36 ]
  %.0 = phi i32 [ 2, %18 ], [ 2, %35 ], [ 0, %36 ]
  %45 = load ptr, ptr %44, align 8, !tbaa !29
  tail call void @SRP_user_pwd_free(ptr noundef %45) #4
  store ptr null, ptr %44, align 8, !tbaa !29
  store ptr null, ptr %2, align 8, !tbaa !30
  br label %46

46:                                               ; preds = %43, %11
  %.021 = phi i32 [ -1, %11 ], [ %.0, %43 ]
  ret i32 %.021
}